# SymbolsHelper-Confirmed: 15.12.0 amd64
libKF5KDcraw.so.5 libkf5kdcraw5 #MINVER#
* Build-Depends-Package: libkf5kdcraw-dev
 _ZN11KDcrawIface18DcrawInfoContainer7isEmptyEv@Base 4.12.3
 _ZN11KDcrawIface18DcrawInfoContainerC1Ev@Base 4.12.3
 _ZN11KDcrawIface18DcrawInfoContainerC2Ev@Base 4.12.3
 _ZN11KDcrawIface18DcrawInfoContainerD0Ev@Base 4.12.3
 _ZN11KDcrawIface18DcrawInfoContainerD1Ev@Base 4.12.3
 _ZN11KDcrawIface18DcrawInfoContainerD2Ev@Base 4.12.3
 _ZN11KDcrawIface19RawDecodingSettings19optimizeTimeLoadingEv@Base 4.12.3
 _ZN11KDcrawIface19RawDecodingSettingsC1Ev@Base 4.12.3
 _ZN11KDcrawIface19RawDecodingSettingsC2Ev@Base 4.12.3
 _ZN11KDcrawIface19RawDecodingSettingsD0Ev@Base 4.12.3
 _ZN11KDcrawIface19RawDecodingSettingsD1Ev@Base 4.12.3
 _ZN11KDcrawIface19RawDecodingSettingsD2Ev@Base 4.12.3
 _ZN11KDcrawIface19RawDecodingSettingsaSERKS0_@Base 4.12.3
 _ZN11KDcrawIface6KDcraw11qt_metacallEN11QMetaObject4CallEiPPv@Base 4.12.3
 _ZN11KDcrawIface6KDcraw11qt_metacastEPKc@Base 4.12.3
 _ZN11KDcrawIface6KDcraw12rawFilesListEv@Base 4.12.3
 _ZN11KDcrawIface6KDcraw13librawUseGompEv@Base 4.12.3
 _ZN11KDcrawIface6KDcraw13librawVersionEv@Base 4.12.3
 _ZN11KDcrawIface6KDcraw13loadFullImageER6QImageRK7QStringRKNS_19RawDecodingSettingsE@Base 4.12.3
 _ZN11KDcrawIface6KDcraw14decodeRAWImageERK7QStringRKNS_19RawDecodingSettingsER10QByteArrayRiS9_S9_@Base 4.12.3
 _ZN11KDcrawIface6KDcraw14extractRAWDataERK7QStringR10QByteArrayRNS_18DcrawInfoContainerEj@Base 4.12.3
 _ZN11KDcrawIface6KDcraw14loadRawPreviewER6QImageRK7QString@Base 4.12.3
 _ZN11KDcrawIface6KDcraw15loadHalfPreviewER10QByteArrayRK7QBuffer@Base 4.12.3
 _ZN11KDcrawIface6KDcraw15loadHalfPreviewER10QByteArrayRK7QString@Base 4.12.3
 _ZN11KDcrawIface6KDcraw15loadHalfPreviewER6QImageRK7QString@Base 4.12.3
 _ZN11KDcrawIface6KDcraw15rawFileIdentifyERNS_18DcrawInfoContainerERK7QString@Base 4.12.3
 _ZN11KDcrawIface6KDcraw15rawFilesVersionEv@Base 4.12.3
 _ZN11KDcrawIface6KDcraw15supportedCameraEv@Base 4.12.3
 _ZN11KDcrawIface6KDcraw16staticMetaObjectE@Base 4.12.3
 _ZN11KDcrawIface6KDcraw17librawUseRawSpeedEv@Base 4.12.3
 _ZN11KDcrawIface6KDcraw18decodeHalfRAWImageERK7QStringRKNS_19RawDecodingSettingsER10QByteArrayRiS9_S9_@Base 4.12.3
 _ZN11KDcrawIface6KDcraw19loadEmbeddedPreviewER10QByteArrayRK7QBuffer@Base 4.12.3
 _ZN11KDcrawIface6KDcraw19loadEmbeddedPreviewER10QByteArrayRK7QString@Base 4.12.3
 _ZN11KDcrawIface6KDcraw19loadEmbeddedPreviewER6QImageRK7QString@Base 4.12.3
 _ZN11KDcrawIface6KDcraw22setWaitingDataProgressEd@Base 4.12.3
 _ZN11KDcrawIface6KDcraw24checkToCancelWaitingDataEv@Base 4.12.3
 _ZN11KDcrawIface6KDcraw25librawUseGPL2DemosaicPackEv@Base 4.12.3
 _ZN11KDcrawIface6KDcraw25librawUseGPL3DemosaicPackEv@Base 4.12.3
 _ZN11KDcrawIface6KDcraw6cancelEv@Base 4.12.3
 _ZN11KDcrawIface6KDcraw7versionEv@Base 4.12.3
 _ZN11KDcrawIface6KDcraw8rawFilesEv@Base 4.12.3
 _ZN11KDcrawIface6KDcrawC1Ev@Base 4.12.3
 _ZN11KDcrawIface6KDcrawC2Ev@Base 4.12.3
 _ZN11KDcrawIface6KDcrawD0Ev@Base 4.12.3
 _ZN11KDcrawIface6KDcrawD1Ev@Base 4.12.3
 _ZN11KDcrawIface6KDcrawD2Ev@Base 4.12.3
 _ZN11KDcrawIfacelsE6QDebugRKNS_18DcrawInfoContainerE@Base 4.12.3
 _ZN11KDcrawIfacelsE6QDebugRKNS_19RawDecodingSettingsE@Base 4.12.3
 _ZNK11KDcrawIface19RawDecodingSettingseqERKS0_@Base 4.12.3
 _ZNK11KDcrawIface6KDcraw10metaObjectEv@Base 4.12.3
 _ZTIN11KDcrawIface18DcrawInfoContainerE@Base 4.12.3
 _ZTIN11KDcrawIface19RawDecodingSettingsE@Base 4.12.3
 _ZTIN11KDcrawIface6KDcrawE@Base 4.12.3
 _ZTSN11KDcrawIface18DcrawInfoContainerE@Base 4.12.3
 _ZTSN11KDcrawIface19RawDecodingSettingsE@Base 4.12.3
 _ZTSN11KDcrawIface6KDcrawE@Base 4.12.3
 _ZTVN11KDcrawIface18DcrawInfoContainerE@Base 4.12.3
 _ZTVN11KDcrawIface19RawDecodingSettingsE@Base 4.12.3
 _ZTVN11KDcrawIface6KDcrawE@Base 4.12.3
